target datalayout = "e-m:e-p270:32:32-p271:32:32-p272:64:64-i64:64-i128:128-f80:128-n8:16:32:64-S128"
target triple = "x86_64-pc-linux-gnu"

%struct.ident_t = type { i32, i32, i32, i32, ptr }
%struct.Qureg = type { i32, i32, i32, i64, i64, i32, i32, %struct.ComplexArray, %struct.ComplexArray, %struct.ComplexArray, ptr, ptr, ptr, ptr, ptr, ptr }
%struct.ComplexArray = type { ptr, ptr }

@3 = private unnamed_addr constant %struct.ident_t { i32 0, i32 2, i32 0, i32 22, ptr @0 }, align 8

; Function Attrs: nounwind uwtable
define void @densmatr_mixTwoQubitDepolarisingDistributed(ptr noundef byval(%struct.Qureg) align 8 %0, i32 noundef %1, i32 noundef %2, double noundef %3, double noundef %4) #0 {
  %6 = alloca i32, align 4
  %7 = alloca i32, align 4
  %8 = alloca double, align 8
  %9 = alloca double, align 8
  %10 = alloca i64, align 8
  %11 = alloca i64, align 8
  %12 = alloca i64, align 8
  %13 = alloca i64, align 8
  %14 = alloca i64, align 8
  %15 = alloca i64, align 8
  %16 = alloca i64, align 8
  %17 = alloca i64, align 8
  store i32 %1, ptr %6, align 4, !tbaa !8
  store i32 %2, ptr %7, align 4, !tbaa !8
  store double %3, ptr %8, align 8, !tbaa !10
  store double %4, ptr %9, align 8, !tbaa !10
  call void @llvm.lifetime.start.p0(i64 8, ptr %10) #3
  call void @llvm.lifetime.start.p0(i64 8, ptr %11) #3
  call void @llvm.lifetime.start.p0(i64 8, ptr %12) #3
  call void @llvm.lifetime.start.p0(i64 8, ptr %13) #3
  call void @llvm.lifetime.start.p0(i64 8, ptr %14) #3
  call void @llvm.lifetime.start.p0(i64 8, ptr %15) #3
  call void @llvm.lifetime.start.p0(i64 8, ptr %16) #3
  call void @llvm.lifetime.start.p0(i64 8, ptr %17) #3
  %18 = getelementptr inbounds nuw %struct.Qureg, ptr %0, i32 0, i32 3
  %19 = load i64, ptr %18, align 8, !tbaa !12
  %20 = ashr i64 %19, 2
  store i64 %20, ptr %17, align 8, !tbaa !4
  %21 = load i32, ptr %6, align 4, !tbaa !8
  %22 = zext i32 %21 to i64
  %23 = shl i64 1, %22
  store i64 %23, ptr %11, align 8, !tbaa !4
  %24 = load i32, ptr %7, align 4, !tbaa !8
  %25 = zext i32 %24 to i64
  %26 = shl i64 1, %25
  store i64 %26, ptr %13, align 8, !tbaa !4
  %27 = load i64, ptr %13, align 8, !tbaa !4
  %28 = ashr i64 %27, 1
  store i64 %28, ptr %14, align 8, !tbaa !4
  %29 = load i64, ptr %13, align 8, !tbaa !4
  %30 = shl i64 %29, 1
  store i64 %30, ptr %12, align 8, !tbaa !4
  %31 = load i64, ptr %11, align 8, !tbaa !4
  %32 = mul nsw i64 2, %31
  store i64 %32, ptr %10, align 8, !tbaa !4
  %33 = getelementptr inbounds nuw %struct.Qureg, ptr %0, i32 0, i32 1
  %34 = load i32, ptr %33, align 4, !tbaa !18
  %35 = zext i32 %34 to i64
  %36 = shl i64 1, %35
  store i64 %36, ptr %15, align 8, !tbaa !4
  %37 = load i64, ptr %15, align 8, !tbaa !4
  %38 = ashr i64 %37, 2
  store i64 %38, ptr %16, align 8, !tbaa !4
  call void (ptr, i32, ptr, ...) @__kmpc_fork_call(ptr @3, i32 12, ptr @densmatr_mixTwoQubitDepolarisingDistributed.omp_outlined, ptr %17, ptr %16, ptr %14, ptr %11, ptr %15, ptr %12, ptr %10, ptr %6, ptr %0, ptr %7, ptr %9, ptr %8)
  call void @llvm.lifetime.end.p0(i64 8, ptr %17) #3
  call void @llvm.lifetime.end.p0(i64 8, ptr %16) #3
  call void @llvm.lifetime.end.p0(i64 8, ptr %15) #3
  call void @llvm.lifetime.end.p0(i64 8, ptr %14) #3
  call void @llvm.lifetime.end.p0(i64 8, ptr %13) #3
  call void @llvm.lifetime.end.p0(i64 8, ptr %12) #3
  call void @llvm.lifetime.end.p0(i64 8, ptr %11) #3
  call void @llvm.lifetime.end.p0(i64 8, ptr %10) #3
  ret void
}