; Function Attrs: nounwind uwtable
define void @densmatr_mixTwoQubitDepolarisingDistributed(ptr noundef byval(%struct.Qureg) align 8 %0, i32 noundef %1, i32 noundef %2, double noundef %3, double noundef %4) local_unnamed_addr #1 {
  %6 = alloca i32, align 4
  %7 = alloca i32, align 4
  %8 = alloca double, align 8
  %9 = alloca double, align 8
  %10 = alloca i64, align 8
  %11 = alloca i64, align 8
  %12 = alloca i64, align 8
  %13 = alloca i64, align 8
  %14 = alloca i64, align 8
  %15 = alloca i64, align 8
  %16 = alloca i64, align 8
  store i32 %1, ptr %6, align 4, !tbaa !18
  store i32 %2, ptr %7, align 4, !tbaa !18
  store double %3, ptr %8, align 8, !tbaa !4
  store double %4, ptr %9, align 8, !tbaa !4
  call void @llvm.lifetime.start.p0(i64 8, ptr nonnull %10) #4
  call void @llvm.lifetime.start.p0(i64 8, ptr nonnull %11) #4
  call void @llvm.lifetime.start.p0(i64 8, ptr nonnull %12) #4
  call void @llvm.lifetime.start.p0(i64 8, ptr nonnull %13) #4
  call void @llvm.lifetime.start.p0(i64 8, ptr nonnull %14) #4
  call void @llvm.lifetime.start.p0(i64 8, ptr nonnull %15) #4
  call void @llvm.lifetime.start.p0(i64 8, ptr nonnull %16) #4
  %17 = getelementptr inbounds nuw i8, ptr %0, i64 16
  %18 = load i64, ptr %17, align 8, !tbaa !8
  %19 = ashr i64 %18, 2
  store i64 %19, ptr %16, align 8, !tbaa !16
  %20 = zext nneg i32 %1 to i64
  %21 = shl nuw i64 1, %20
  store i64 %21, ptr %11, align 8, !tbaa !16
  %22 = zext nneg i32 %2 to i64
  %23 = shl nuw i64 1, %22
  %24 = ashr i64 %23, 1
  store i64 %24, ptr %13, align 8, !tbaa !16
  %25 = shl i64 2, %22
  store i64 %25, ptr %12, align 8, !tbaa !16
  %26 = shl i64 2, %20
  store i64 %26, ptr %10, align 8, !tbaa !16
  %27 = getelementptr inbounds nuw i8, ptr %0, i64 4
  %28 = load i32, ptr %27, align 4, !tbaa !17
  %29 = zext nneg i32 %28 to i64
  %30 = shl nuw i64 1, %29
  store i64 %30, ptr %14, align 8, !tbaa !16
  %31 = ashr i64 %30, 2
  store i64 %31, ptr %15, align 8, !tbaa !16
  call void (ptr, i32, ptr, ...) @__kmpc_fork_call(ptr nonnull @3, i32 12, ptr nonnull @densmatr_mixTwoQubitDepolarisingDistributed.omp_outlined, ptr nonnull %16, ptr nonnull %15, ptr nonnull %13, ptr nonnull %11, ptr nonnull %14, ptr nonnull %12, ptr nonnull %10, ptr nonnull %6, ptr nonnull %0, ptr nonnull %7, ptr nonnull %9, ptr nonnull %8)
  call void @llvm.lifetime.end.p0(i64 8, ptr nonnull %16) #4
  call void @llvm.lifetime.end.p0(i64 8, ptr nonnull %15) #4
  call void @llvm.lifetime.end.p0(i64 8, ptr nonnull %14) #4
  call void @llvm.lifetime.end.p0(i64 8, ptr nonnull %13) #4
  call void @llvm.lifetime.end.p0(i64 8, ptr nonnull %12) #4
  call void @llvm.lifetime.end.p0(i64 8, ptr nonnull %11) #4
  call void @llvm.lifetime.end.p0(i64 8, ptr nonnull %10) #4
  ret void
}